; Function Attrs: mustprogress nounwind uwtable
define dso_local noundef ptr @_ZN5clang13serialization24getDefinitiveDeclContextEPKNS_11DeclContextE(ptr noundef %0) local_unnamed_addr #1 {
  %2 = getelementptr inbounds nuw i8, ptr %0, i64 8
  %3 = load i16, ptr %2, align 8
  %4 = and i16 %3, 127
  switch i16 %4, label %24 [
    i16 0, label %25
    i16 4, label %25
    i16 21, label %25
    i16 3, label %25
    i16 5, label %25
    i16 59, label %5
    i16 55, label %5
    i16 56, label %25
    i16 57, label %25
    i16 58, label %25
    i16 31, label %9
    i16 32, label %9
    i16 35, label %9
    i16 33, label %9
    i16 34, label %9
    i16 15, label %9
    i16 7, label %9
    i16 6, label %9
    i16 20, label %9
    i16 19, label %9
    i16 18, label %9
    i16 16, label %10
    i16 17, label %25
  ]

5:                                                ; preds = %1, %1
  %6 = getelementptr inbounds i8, ptr %0, i64 -64
  %7 = tail call noundef ptr @_ZNK5clang7TagDecl13getDefinitionEv(ptr noundef nonnull align 8 dereferenceable(128) %6) #6
  %.not12 = icmp eq ptr %7, null
  %8 = getelementptr inbounds nuw i8, ptr %7, i64 64
  %spec.select = select i1 %.not12, ptr null, ptr %8
  br label %25

9:                                                ; preds = %1, %1, %1, %1, %1, %1, %1, %1, %1, %1, %1
  br label %25

10:                                               ; preds = %1
  %11 = getelementptr inbounds nuw i8, ptr %0, i64 56
  %.0.copyload.i.i.i.i = load i64, ptr %11, align 8
  %.not.i.i = icmp eq i64 %.0.copyload.i.i.i.i, 0
  br i1 %.not.i.i, label %12, label %_ZNK5clang16ObjCProtocolDecl13hasDefinitionEv.exit.i

12:                                               ; preds = %10
  %13 = getelementptr inbounds nuw i8, ptr %0, i64 48
  %14 = load ptr, ptr %13, align 8
  %15 = getelementptr inbounds nuw i8, ptr %14, i64 88
  %16 = tail call noundef ptr @_ZNK5clang12RedeclarableINS_16ObjCProtocolDeclEE8DeclLink11getPreviousEPKS1_(ptr noundef nonnull align 8 dereferenceable(16) %15, ptr noundef nonnull %14)
  %.0.copyload.i.i.i.pre.i.i = load i64, ptr %11, align 8
  br label %_ZNK5clang16ObjCProtocolDecl13hasDefinitionEv.exit.i

_ZNK5clang16ObjCProtocolDecl13hasDefinitionEv.exit.i: ; preds = %12, %10
  %.0.copyload.i.i.i1.i = phi i64 [ %.0.copyload.i.i.i.pre.i.i, %12 ], [ %.0.copyload.i.i.i.i, %10 ]
  %17 = icmp ugt i64 %.0.copyload.i.i.i1.i, 7
  br i1 %17, label %18, label %_ZNK5clang16ObjCProtocolDecl13getDefinitionEv.exit

18:                                               ; preds = %_ZNK5clang16ObjCProtocolDecl13hasDefinitionEv.exit.i
  %19 = and i64 %.0.copyload.i.i.i1.i, -8
  %20 = inttoptr i64 %19 to ptr
  %21 = load ptr, ptr %20, align 8
  br label %_ZNK5clang16ObjCProtocolDecl13getDefinitionEv.exit

_ZNK5clang16ObjCProtocolDecl13getDefinitionEv.exit: ; preds = %_ZNK5clang16ObjCProtocolDecl13hasDefinitionEv.exit.i, %18
  %22 = phi ptr [ %21, %18 ], [ null, %_ZNK5clang16ObjCProtocolDecl13hasDefinitionEv.exit.i ]
  %.not = icmp eq ptr %22, null
  %23 = getelementptr inbounds nuw i8, ptr %22, i64 48
  %spec.select13 = select i1 %.not, ptr null, ptr %23
  br label %25

24:                                               ; preds = %1
  unreachable

25:                                               ; preds = %_ZNK5clang16ObjCProtocolDecl13getDefinitionEv.exit, %5, %1, %1, %1, %1, %1, %1, %1, %1, %1, %9
  %.0 = phi ptr [ %0, %9 ], [ null, %1 ], [ null, %1 ], [ null, %1 ], [ null, %1 ], [ null, %1 ], [ null, %1 ], [ null, %1 ], [ null, %1 ], [ null, %1 ], [ %spec.select, %5 ], [ %spec.select13, %_ZNK5clang16ObjCProtocolDecl13getDefinitionEv.exit ]
  ret ptr %.0
}